BL51 BANKED LINKER/LOCATER V6.22.4.0                                                    12/29/2024  21:32:27  PAGE 1


BL51 BANKED LINKER/LOCATER V6.22.4.0, INVOKED BY:
D:\SOFTWARE\8051\C51\BIN\BL51.EXE .\Objects\HELLO.obj TO .\Objects\code PRINT (.\code.m51) RAMSIZE (256)


MEMORY MODEL: SMALL


INPUT MODULES INCLUDED:
  .\Objects\HELLO.obj (HELLO)
  D:\SOFTWARE\8051\C51\LIB\C51S.LIB (?C_STARTUP)
  D:\SOFTWARE\8051\C51\LIB\C51S.LIB (?C?CLDPTR)
  D:\SOFTWARE\8051\C51\LIB\C51S.LIB (PRINTF)
  D:\SOFTWARE\8051\C51\LIB\C51S.LIB (?C_INIT)
  D:\SOFTWARE\8051\C51\LIB\C51S.LIB (?C?CLDOPTR)
  D:\SOFTWARE\8051\C51\LIB\C51S.LIB (?C?CSTPTR)
  D:\SOFTWARE\8051\C51\LIB\C51S.LIB (?C?PLDIIDATA)
  D:\SOFTWARE\8051\C51\LIB\C51S.LIB (?C?CCASE)
  D:\SOFTWARE\8051\C51\LIB\C51S.LIB (PUTCHAR)


LINK MAP OF MODULE:  .\Objects\code (HELLO)


            TYPE    BASE      LENGTH    RELOCATION   SEGMENT NAME
            -----------------------------------------------------

            * * * * * * *   D A T A   M E M O R Y   * * * * * * *
            REG     0000H     0008H     ABSOLUTE     "REG BANK 0"
            REG     0008H     0008H     ABSOLUTE     "REG BANK 1"
                    0010H     0010H                  *** GAP ***
            BIT     0020H.0   0001H.1   UNIT         _BIT_GROUP_
                    0021H.1   0000H.7                *** GAP ***
            DATA    0022H     0016H     UNIT         ?DT?HELLO
            DATA    0038H     0014H     UNIT         _DATA_GROUP_
            IDATA   004CH     0001H     UNIT         ?STACK

            * * * * * * *   C O D E   M E M O R Y   * * * * * * *
            CODE    0000H     0003H     ABSOLUTE     
                    0003H     0008H                  *** GAP ***
            CODE    000BH     0003H     ABSOLUTE     
                    000EH     07F2H                  *** GAP ***
            CODE    0800H     035CH     UNIT         ?PR?PRINTF?PRINTF
            CODE    0B5CH     008EH     UNIT         ?C?LIB_CODE
            CODE    0BEAH     008CH     UNIT         ?C_C51STARTUP
            CODE    0C76H     0041H     UNIT         ?PR?TIMER0_INT?HELLO
            CODE    0CB7H     0028H     UNIT         ?PR?_SEND_MSG?HELLO
            CODE    0CDFH     0027H     UNIT         ?PR?PUTCHAR?PUTCHAR
            CODE    0D06H     001BH     UNIT         ?PR?MAIN?HELLO
            CODE    0D21H     000AH     UNIT         ?CO?HELLO
            CODE    0D2BH     0005H     UNIT         ?C_INITSEG



OVERLAY MAP OF MODULE:   .\Objects\code (HELLO)


SEGMENT                           BIT_GROUP          DATA_GROUP 
  +--> CALLED SEGMENT          START    LENGTH     START    LENGTH
BL51 BANKED LINKER/LOCATER V6.22.4.0                                                  12/29/2024  21:32:27  PAGE 2


------------------------------------------------------------------
?PR?TIMER0_INT?HELLO           -----    -----      -----    -----
  +--> ?CO?HELLO
  +--> ?PR?PRINTF?PRINTF
  +--> ?PR?_SEND_MSG?HELLO

?PR?PRINTF?PRINTF              0020H.0  0001H.1    0038H    0014H
  +--> ?PR?PUTCHAR?PUTCHAR

?PR?_SEND_MSG?HELLO            -----    -----      0038H    0003H

*** NEW ROOT ***************************************************

?C_C51STARTUP                  -----    -----      -----    -----
  +--> ?PR?MAIN?HELLO
  +--> ?C_INITSEG



SYMBOL TABLE OF MODULE:  .\Objects\code (HELLO)

  VALUE           TYPE          NAME
  ----------------------------------

  -------         MODULE        HELLO
  C:0000H         SYMBOL        _ICE_DUMMY_
  D:0090H         PUBLIC        P1
  C:0C76H         PUBLIC        timer0_int
  D:00B0H         PUBLIC        P3
  B:00A8H.7       PUBLIC        EA
  D:00A8H         PUBLIC        IE
  D:00B8H         PUBLIC        IP
  B:0098H.1       PUBLIC        TI
  C:0D06H         PUBLIC        main
  D:0022H         PUBLIC        count
  D:0099H         PUBLIC        SBUF
  D:0098H         PUBLIC        SCON
  D:0089H         PUBLIC        TMOD
  D:0088H         PUBLIC        TCON
  D:0024H         PUBLIC        msg
  B:00A8H.1       PUBLIC        ET0
  D:008CH         PUBLIC        TH0
  D:008DH         PUBLIC        TH1
  D:008AH         PUBLIC        TL0
  C:0CB7H         PUBLIC        _send_msg
  B:0088H.4       PUBLIC        TR0
  B:0088H.6       PUBLIC        TR1
  D:00C8H         PUBLIC        T2CON
  D:00D0H         PUBLIC        PSW
  -------         PROC          _SEND_MSG
  D:0038H         SYMBOL        msg
  C:0CB7H         LINE#         8
  C:0CBDH         LINE#         9
  C:0CC8H         LINE#         10
  C:0CD7H         LINE#         11
  C:0CDAH         LINE#         12
  C:0CDCH         LINE#         13
BL51 BANKED LINKER/LOCATER V6.22.4.0                                                  12/29/2024  21:32:27  PAGE 3


  C:0CDEH         LINE#         14
  -------         ENDPROC       _SEND_MSG
  -------         PROC          TIMER0_INT
  C:0C76H         LINE#         16
  C:0C83H         LINE#         17
  C:0CA3H         LINE#         18
  C:0CACH         LINE#         19
  -------         ENDPROC       TIMER0_INT
  -------         PROC          MAIN
  C:0D06H         LINE#         21
  C:0D06H         LINE#         23
  C:0D09H         LINE#         24
  C:0D0CH         LINE#         25
  C:0D0FH         LINE#         26
  C:0D11H         LINE#         27
  C:0D13H         LINE#         28
  C:0D15H         LINE#         30
  C:0D18H         LINE#         31
  C:0D1BH         LINE#         32
  C:0D1DH         LINE#         33
  C:0D1FH         LINE#         35
  C:0D1FH         LINE#         36
  -------         ENDPROC       MAIN
  -------         ENDMOD        HELLO

  -------         MODULE        ?C?CLDPTR
  C:0B5CH         PUBLIC        ?C?CLDPTR
  -------         ENDMOD        ?C?CLDPTR

  -------         MODULE        PRINTF
  D:0038H         PUBLIC        ?_PRINTF517?BYTE
  D:0038H         PUBLIC        ?_PRINTF?BYTE
  D:0038H         PUBLIC        ?_SPRINTF517?BYTE
  D:0038H         PUBLIC        ?_SPRINTF?BYTE
  C:0862H         PUBLIC        _PRINTF
  C:0862H         PUBLIC        _PRINTF517
  C:085CH         PUBLIC        _SPRINTF
  C:085CH         PUBLIC        _SPRINTF517
  -------         ENDMOD        PRINTF

  -------         MODULE        ?C?CLDOPTR
  C:0B75H         PUBLIC        ?C?CLDOPTR
  -------         ENDMOD        ?C?CLDOPTR

  -------         MODULE        ?C?CSTPTR
  C:0BA2H         PUBLIC        ?C?CSTPTR
  -------         ENDMOD        ?C?CSTPTR

  -------         MODULE        ?C?PLDIIDATA
  C:0BB4H         PUBLIC        ?C?PLDIIDATA
  -------         ENDMOD        ?C?PLDIIDATA

  -------         MODULE        ?C?CCASE
  C:0BC4H         PUBLIC        ?C?CCASE
  -------         ENDMOD        ?C?CCASE

  -------         MODULE        PUTCHAR
BL51 BANKED LINKER/LOCATER V6.22.4.0                                                  12/29/2024  21:32:27  PAGE 4


  C:0CDFH         PUBLIC        _PUTCHAR
  -------         ENDMOD        PUTCHAR

******************************************************************************
* RESTRICTED VERSION WITH 0800H BYTE CODE SIZE LIMIT; USED: 0095H BYTE ( 7%) *
******************************************************************************

Program Size: data=60.1 xdata=0 code=1334
LINK/LOCATE RUN COMPLETE.  0 WARNING(S),  0 ERROR(S)
